; Function Attrs: nounwind uwtable
define hidden noundef i32 @lxb_html_tree_adjust_mathml_attributes(ptr nocapture noundef readnone %0, ptr nocapture noundef %1, ptr nocapture noundef readnone %2) local_unnamed_addr #0 {
  %4 = getelementptr inbounds i8, ptr %1, i64 32
  %5 = load ptr, ptr %4, align 8
  %6 = getelementptr inbounds i8, ptr %5, i64 208
  %7 = load ptr, ptr %6, align 8
  %8 = getelementptr inbounds i8, ptr %1, i64 8
  %9 = load i64, ptr %8, align 8
  %10 = tail call ptr @lxb_dom_attr_data_by_id(ptr noundef %7, i64 noundef %9) #9
  %11 = getelementptr inbounds i8, ptr %10, i64 24
  %12 = load i64, ptr %11, align 8
  %13 = icmp eq i64 %12, 13
  br i1 %13, label %lexbor_hash_entry_str.exit, label %22

lexbor_hash_entry_str.exit:                       ; preds = %3
  %14 = tail call zeroext i1 @lexbor_str_data_cmp(ptr noundef nonnull %10, ptr noundef nonnull @.str) #9
  br i1 %14, label %15, label %22

15:                                               ; preds = %lexbor_hash_entry_str.exit
  %16 = tail call ptr @lxb_dom_attr_qualified_name_append(ptr noundef %7, ptr noundef nonnull @.str.1, i64 noundef 13) #9
  %17 = icmp eq ptr %16, null
  br i1 %17, label %22, label %18

18:                                               ; preds = %15
  %19 = getelementptr inbounds i8, ptr %16, i64 40
  %20 = load i64, ptr %19, align 8
  %21 = getelementptr inbounds i8, ptr %1, i64 112
  store i64 %20, ptr %21, align 8
  br label %22

22:                                               ; preds = %3, %lexbor_hash_entry_str.exit, %18, %15
  %.0 = phi i32 [ 1, %15 ], [ 0, %18 ], [ 0, %lexbor_hash_entry_str.exit ], [ 0, %3 ]
  ret i32 %.0
}